; Function Attrs: nounwind uwtable
define internal fastcc range(i32 -1, 1) i32 @_config_dict_get_bool(ptr noundef nonnull %0, ptr noundef %1, ptr noundef nonnull writeonly captures(none) %2) unnamed_addr #0 {
  %4 = alloca ptr, align 8
  call void @llvm.lifetime.start.p0(i64 8, ptr nonnull %4) #6
  %5 = call i32 @PyDict_GetItemStringRef(ptr noundef nonnull %0, ptr noundef %1, ptr noundef nonnull %4) #6
  %6 = icmp slt i32 %5, 0
  br i1 %6, label %_config_dict_get.exit.thread, label %7

7:                                                ; preds = %3
  %8 = load ptr, ptr %4, align 8, !tbaa !16
  %9 = icmp eq ptr %8, null
  br i1 %9, label %_config_dict_get.exit.thread, label %10

_config_dict_get.exit.thread:                     ; preds = %3, %7
  call void @llvm.lifetime.end.p0(i64 8, ptr nonnull %4) #6
  br label %28

10:                                               ; preds = %7
  call void @llvm.lifetime.end.p0(i64 8, ptr nonnull %4) #6
  %11 = icmp eq ptr %8, @_Py_TrueStruct
  %12 = icmp ne ptr %8, @_Py_FalseStruct
  %or.cond = xor i1 %11, %12
  br i1 %or.cond, label %13, label %21

13:                                               ; preds = %10
  %14 = load i32, ptr %8, align 8, !tbaa !9
  %.not.i8 = icmp sgt i32 %14, -1
  br i1 %.not.i8, label %15, label %Py_DECREF.exit9

15:                                               ; preds = %13
  %16 = add nsw i32 %14, -1
  store i32 %16, ptr %8, align 8, !tbaa !9
  %17 = icmp eq i32 %16, 0
  br i1 %17, label %18, label %Py_DECREF.exit9

18:                                               ; preds = %15
  call void @_Py_Dealloc(ptr noundef nonnull %8) #6
  br label %Py_DECREF.exit9

Py_DECREF.exit9:                                  ; preds = %13, %15, %18
  %19 = load ptr, ptr @PyExc_TypeError, align 8, !tbaa !16
  %20 = call ptr (ptr, ptr, ...) @PyErr_Format(ptr noundef %19, ptr noundef nonnull @.str.14, ptr noundef %1) #6
  br label %28

21:                                               ; preds = %10
  %22 = zext i1 %11 to i32
  %23 = load i32, ptr %8, align 8, !tbaa !9
  %.not.i = icmp sgt i32 %23, -1
  br i1 %.not.i, label %24, label %Py_DECREF.exit

24:                                               ; preds = %21
  %25 = add nsw i32 %23, -1
  store i32 %25, ptr %8, align 8, !tbaa !9
  %26 = icmp eq i32 %25, 0
  br i1 %26, label %27, label %Py_DECREF.exit

27:                                               ; preds = %24
  call void @_Py_Dealloc(ptr noundef nonnull %8) #6
  br label %Py_DECREF.exit

Py_DECREF.exit:                                   ; preds = %21, %24, %27
  store i32 %22, ptr %2, align 4, !tbaa !31
  br label %28

28:                                               ; preds = %_config_dict_get.exit.thread, %Py_DECREF.exit9, %Py_DECREF.exit
  %.0 = phi i32 [ -1, %Py_DECREF.exit9 ], [ 0, %Py_DECREF.exit ], [ -1, %_config_dict_get.exit.thread ]
  ret i32 %.0
}